(lp0
(lp1
S'mokis'
p2
aI391
aa(lp3
S'mokis'
p4
aI360
aa(lp5
S'mokis'
p6
aI343
aa(lp7
S'mokis'
p8
aI317
aa(lp9
S'mokis'
p10
aI284
aa(lp11
S'mokis'
p12
aI279
aa(lp13
S'c0s'
p14
aI277
aa(lp15
S'mokis'
p16
aI275
aa(lp17
S'mokis'
p18
aI272
aa(lp19
S'hyyke'
p20
aI269
aa(lp21
S'mokis'
p22
aI260
aa(lp23
S'mokis'
p24
aI255
aa(lp25
S'mokis'
p26
aI253
aa(lp27
S'cos'
p28
aI252
aa(lp29
S'mokis'
p30
aI247
aa(lp31
S'mokis'
p32
aI246
aa(lp33
S'c0s'
p34
aI241
aa(lp35
S'mokis'
p36
aI237
aa(lp37
S'mokis'
p38
aI237
aa(lp39
S'c0s'
p40
aI235
aa(lp41
S'fghbg'
p42
aI234
aa(lp43
S'mokis'
p44
aI229
aa(lp45
S'hyyke'
p46
aI227
aa(lp47
S'Anonymous'
p48
aI219
aa(lp49
S'mokis'
p50
aI219
aa(lp51
S'mokis'
p52
aI215
aa(lp53
S'cos'
p54
aI210
aa(lp55
S'skheme'
p56
aI210
aa(lp57
S'skheme'
p58
aI196
aa(lp59
S'nam'
p60
aI190
aa(lp61
S'mokis'
p62
aI189
aa(lp63
S'mokis'
p64
aI188
aa(lp65
S'cos'
p66
aI186
aa(lp67
S'rost'
p68
aI184
aa(lp69
S'h'
p70
aI183
aa(lp71
S'namo'
p72
aI180
aa(lp73
S'hyyke'
p74
aI179
aa(lp75
g48
aI178
aa(lp76
S'ou43th'
p77
aI178
aa(lp78
S'Anonymous'
p79
aI177
aa(lp80
S'keppo'
p81
aI169
aa(lp82
S'keppo'
p83
aI167
aa(lp84
g79
aI162
aa(lp85
g79
aI162
aa(lp86
S'skhe'
p87
aI160
aa(lp88
S'Anonymous'
p89
aI155
aa(lp90
S'jdl\xe4yqek'
p91
aI153
aa(lp92
S'rrrr'
p93
aI152
aa(lp94
g89
aI148
aa(lp95
S'riku'
p96
aI147
aa(lp97
g79
aI143
aa(lp98
S'namo'
p99
aI141
aa(lp100
S'sk'
p101
aI137
aa(lp102
S'thgteeulkuy'
p103
aI134
aa(lp104
S'coa'
p105
aI131
aa(lp106
S'5'
p107
aI130
aa(lp108
S'v\xf6p4d'
p109
aI123
aa(lp110
S't'
p111
aI115
aa(lp112
S'qwe'
p113
aI72
aa(lp114
S'Anonymous'
p115
aI13
aa(lp116
g115
aI-13
aa(lp117
g79
aI-71
aa.