(lp0
(lp1
S'mokis'
p2
aI310
aa(lp3
S'bob4'
p4
aI280
aa(lp5
S'keppo-5w'
p6
aI278
aa(lp7
S'keppo-5w'
p8
aI213
aa(lp9
S'bob4'
p10
aI200
aa(lp11
S'rostbach'
p12
aI195
aa(lp13
S'bob4'
p14
aI195
aa(lp15
S'bob4'
p16
aI192
aa(lp17
S'bob4'
p18
aI186
aa(lp19
S's13ge'
p20
aI185
aa(lp21
S'keppo-5w'
p22
aI185
aa(lp23
S's13ge'
p24
aI185
aa(lp25
S's13ge'
p26
aI179
aa(lp27
S'dee'
p28
aI168
aa(lp29
S'Anonymous'
p30
aI163
aa(lp31
S'zarr'
p32
aI161
aa(lp33
S'5un'
p34
aI161
aa(lp35
S's13ge'
p36
aI153
aa(lp37
S'bob4'
p38
aI153
aa(lp39
S's13ge'
p40
aI150
aa(lp41
S'bob4'
p42
aI150
aa(lp43
S's'
p44
aI148
aa(lp45
S's13ge'
p46
aI145
aa(lp47
S'rost'
p48
aI144
aa(lp49
S'kenkku'
p50
aI143
aa(lp51
S'kenkku'
p52
aI132
aa(lp53
S'zouwi'
p54
aI130
aa(lp55
S'ari'
p56
aI128
aa(lp57
S'bob4'
p58
aI126
aa(lp59
S'zarr'
p60
aI125
aa(lp61
S'y'
p62
aI125
aa(lp63
S'zouwi'
p64
aI119
aa(lp65
S'zarr'
p66
aI115
aa(lp67
S'bob4'
p68
aI111
aa(lp69
S's13ge'
p70
aI107
aa(lp71
S'e'
p72
aI99
aa(lp73
S'zouwi'
p74
aI95
aa(lp75
S'zzorn'
p76
aI69
aa(lp77
g30
aI53
aa.