(lp0
(lp1
S'mokis-5w'
p2
aI379
aa(lp3
S'mokis'
p4
aI344
aa(lp5
S'li'
p6
aI322
aa(lp7
S'wizor'
p8
aI321
aa(lp9
S'Anonymous'
p10
aI315
aa(lp11
S'mokis-5w'
p12
aI314
aa(lp13
S'mokis'
p14
aI313
aa(lp15
S'keppo-5w'
p16
aI311
aa(lp17
S'mokis'
p18
aI310
aa(lp19
S'mokis'
p20
aI309
aa(lp21
S'mokis'
p22
aI302
aa(lp23
S'keppo-5w'
p24
aI301
aa(lp25
S'mokis'
p26
aI297
aa(lp27
S'mokis'
p28
aI297
aa(lp29
S'keppo-5w'
p30
aI288
aa(lp31
S'keppo-5w'
p32
aI286
aa(lp33
S'mokis'
p34
aI283
aa(lp35
S'bob4'
p36
aI280
aa(lp37
S'keppo-5w'
p38
aI278
aa(lp39
S'Anonymous'
p40
aI273
aa(lp41
S'moooooooolooooooooooooookkkkkkkkkkkkooooooooookooooooooooooooooooooooooooo'
p42
aI271
aa(lp43
S'wizor'
p44
aI266
aa(lp45
S'mokis'
p46
aI266
aa(lp47
S'mokis'
p48
aI266
aa(lp49
S'mokis'
p50
aI266
aa(lp51
S'b0b4'
p52
aI264
aa(lp53
S'keppo-5w'
p54
aI263
aa(lp55
S'keppo-5w'
p56
aI259
aa(lp57
g40
aI257
aa(lp58
S'li'
p59
aI257
aa(lp60
S'b0b4'
p61
aI252
aa(lp62
S'namo'
p63
aI250
aa(lp64
S'wiz'
p65
aI246
aa(lp66
S'keppo-5w'
p67
aI245
aa(lp68
S'li'
p69
aI245
aa(lp70
g10
aI244
aa(lp71
S'mokis'
p72
aI244
aa(lp73
S'b0b4'
p74
aI242
aa(lp75
S'wizor'
p76
aI240
aa(lp77
S'keppo-5w'
p78
aI237
aa(lp79
S'Anonymous'
p80
aI233
aa(lp81
g10
aI230
aa(lp82
S'b0b4'
p83
aI227
aa(lp84
S'b0b4'
p85
aI223
aa(lp86
S'b0b4'
p87
aI223
aa(lp88
g40
aI222
aa(lp89
S'mokis'
p90
aI215
aa(lp91
g10
aI214
aa(lp92
S'j'
p93
aI214
aa(lp94
S'keppo-5w'
p95
aI213
aa(lp96
S'keppo-5w'
p97
aI212
aa(lp98
S'li'
p99
aI210
aa(lp100
S'rostbach'
p101
aI209
aa(lp102
S'li'
p103
aI209
aa(lp104
g80
aI208
aa(lp105
S'b0b4'
p106
aI206
aa(lp107
S'wizz'
p108
aI205
aa(lp109
S'b0b4'
p110
aI203
aa(lp111
g80
aI200
aa(lp112
S'\xf6'
p113
aI200
aa(lp114
S'bob4'
p115
aI200
aa(lp116
g10
aI198
aa(lp117
S'b0b4'
p118
aI198
aa(lp119
S'Atomic'
p120
aI197
aa(lp121
S'ilu'
p122
aI196
aa(lp123
S'rostbach'
p124
aI195
aa(lp125
S'bob4'
p126
aI195
aa(lp127
S'b0b4'
p128
aI192
aa(lp129
S'bob4'
p130
aI192
aa(lp131
S'airzero'
p132
aI189
aa(lp133
g40
aI188
aa(lp134
S'bob4'
p135
aI186
aa(lp136
S's13ge'
p137
aI185
aa(lp138
S'keppo-5w'
p139
aI185
aa(lp140
S's13ge'
p141
aI185
aa(lp142
S'hmp'
p143
aI182
aa(lp144
g10
aI182
aa(lp145
S'li'
p146
aI182
aa(lp147
S'juha'
p148
aI180
aa(lp149
S'l9ii'
p150
aI180
aa(lp151
S'wiz'
p152
aI179
aa(lp153
S'keppo'
p154
aI179
aa(lp155
S's13ge'
p156
aI179
aa(lp157
g93
aI176
aa(lp158
S'Anonymous'
p159
aI176
aa(lp160
g10
aI175
aa(lp161
S'eeeeeee'
p162
aI175
aa(lp163
S'b0b4'
p164
aI175
aa(lp165
S'ryty'
p166
aI173
aa(lp167
S'w'
p168
aI172
aa(lp169
S'Anonymous'
p170
aI172
aa(lp171
g170
aI170
aa(lp172
g159
aI169
aa(lp173
S'moi'
p174
aI168
aa(lp175
g10
aI168
aa(lp176
g170
aI168
aa(lp177
S'b0b4'
p178
aI168
aa(lp179
S'dee'
p180
aI168
aa(lp181
S'mikko'
p182
aI167
aa(lp183
S'keppo-5w'
p184
aI167
aa(lp185
g10
aI166
aa(lp186
S'jh'
p187
aI166
aa(lp188
S'rost'
p189
aI165
aa(lp190
S'Anonymous'
p191
aI163
aa(lp192
S'b0b4'
p193
aI162
aa(lp194
S'zarr'
p195
aI161
aa(lp196
S'5un'
p197
aI161
aa(lp198
g170
aI159
aa(lp199
S'5'
p200
aI159
aa(lp201
S'seee'
p202
aI158
aa(lp203
S'rost'
p204
aI158
aa(lp205
g170
aI158
aa(lp206
S'b0b4'
p207
aI158
aa(lp208
g170
aI156
aa(lp209
S'li'
p210
aI156
aa(lp211
S'cce'
p212
aI155
aa(lp213
S'b0b4'
p214
aI155
aa(lp215
g10
aI154
aa(lp216
S'jeri'
p217
aI154
aa(lp218
S's13ge'
p219
aI153
aa(lp220
S'bob4'
p221
aI153
aa(lp222
S'jh'
p223
aI151
aa(lp224
S'jbt'
p225
aI150
aa(lp226
S's13ge'
p227
aI150
aa(lp228
S'bob4'
p229
aI150
aa(lp230
S'u'
p231
aI149
aa(lp232
S'y'
p233
aI149
aa(lp234
S'dnt'
p235
aI148
aa(lp236
g40
aI148
aa(lp237
S'jeri'
p238
aI148
aa(lp239
S's'
p240
aI148
aa(lp241
g170
aI146
aa(lp242
S's13ge'
p243
aI145
aa(lp244
S'seeee'
p245
aI144
aa(lp246
S'siiseli'
p247
aI144
aa(lp248
S'rost'
p249
aI144
aa(lp250
S'juha'
p251
aI143
aa(lp252
S'kenkku'
p253
aI143
aa(lp254
S'kalma'
p255
aI142
aa(lp256
S'ryty'
p257
aI139
aa(lp258
g10
aI139
aa(lp259
g170
aI138
aa(lp260
g170
aI137
aa(lp261
S'wiz'
p262
aI136
aa(lp263
g80
aI136
aa(lp264
g231
aI136
aa(lp265
S'pullaemu'
p266
aI135
aa(lp267
S'ilu'
p268
aI134
aa(lp269
S'zz'
p270
aI134
aa(lp271
S'p'
p272
aI132
aa(lp273
S'mk'
p274
aI132
aa(lp275
S'kenkku'
p276
aI132
aa(lp277
g170
aI131
aa(lp278
S'rrrrr'
p279
aI130
aa(lp280
S'zouwi'
p281
aI130
aa(lp282
S'antti'
p283
aI129
aa(lp284
g159
aI128
aa(lp285
S'ari'
p286
aI128
aa(lp287
S'hmp'
p288
aI126
aa(lp289
S'bob4'
p290
aI126
aa(lp291
S'see'
p292
aI125
aa(lp293
S'eweeeee'
p294
aI125
aa(lp295
S'juha'
p296
aI125
aa(lp297
S'zarr'
p298
aI125
aa(lp299
S'y'
p300
aI125
aa(lp301
S'mikko'
p302
aI124
aa(lp303
S'ilu'
p304
aI124
aa(lp305
S'a'
p306
aI123
aa(lp307
g159
aI122
aa(lp308
g80
aI121
aa(lp309
g10
aI119
aa(lp310
S'zouwi'
p311
aI119
aa(lp312
g80
aI117
aa(lp313
g93
aI116
aa(lp314
S'Anonymous'
p315
aI115
aa(lp316
g170
aI115
aa(lp317
g170
aI115
aa(lp318
S'zarr'
p319
aI115
aa(lp320
g170
aI113
aa(lp321
S'trn'
p322
aI113
aa(lp323
S'MK'
p324
aI112
aa(lp325
g170
aI112
aa(lp326
S'bob4'
p327
aI111
aa(lp328
S'b0b4'
p329
aI109
aa(lp330
g170
aI108
aa(lp331
S'Newa'
p332
aI107
aa(lp333
S's13ge'
p334
aI107
aa(lp335
S'jw2'
p336
aI106
aa(lp337
S'AA'
p338
aI105
aa(lp339
S'ZWS'
p340
aI104
aa(lp341
S'r'
p342
aI103
aa(lp343
S'0'
p344
aI100
aa(lp345
S'ryty'
p346
aI99
aa(lp347
g170
aI99
aa(lp348
S'Anonymous'
p349
aI99
aa(lp350
S'e'
p351
aI99
aa(lp352
g10
aI98
aa(lp353
S'osma'
p354
aI97
aa(lp355
g170
aI97
aa(lp356
S'g'
p357
aI96
aa(lp358
g170
aI95
aa(lp359
g170
aI95
aa(lp360
S'zouwi'
p361
aI95
aa(lp362
S'marko'
p363
aI94
aa(lp364
S'raa'
p365
aI94
aa(lp366
g80
aI93
aa(lp367
S'jw'
p368
aI92
aa(lp369
g80
aI92
aa(lp370
g170
aI92
aa(lp371
S'zog'
p372
aI92
aa(lp373
S'y'
p374
aI91
aa(lp375
S'yh'
p376
aI90
aa(lp377
S'n'
p378
aI89
aa(lp379
g159
aI87
aa(lp380
g306
aI87
aa(lp381
g349
aI87
aa(lp382
S'ada'
p383
aI86
aa(lp384
g10
aI84
aa(lp385
S'm,k'
p386
aI84
aa(lp387
S'vappis'
p388
aI84
aa(lp389
S'ilu'
p390
aI82
aa(lp391
g170
aI81
aa(lp392
S'7'
p393
aI80
aa(lp394
S'jw'
p395
aI79
aa(lp396
g170
aI79
aa(lp397
S'cce'
p398
aI78
aa(lp399
g10
aI77
aa(lp400
S'f'
p401
aI73
aa(lp402
S'Anonymous'
p403
aI73
aa(lp404
S'terwis'
p405
aI72
aa(lp406
S'Anonymous'
p407
aI72
aa(lp408
S'v666'
p409
aI72
aa(lp410
g80
aI71
aa(lp411
S'cce1337'
p412
aI70
aa(lp413
S'sam'
p414
aI69
aa(lp415
S'zzorn'
p416
aI69
aa(lp417
g10
aI67
aa(lp418
S'jake'
p419
aI65
aa(lp420
g10
aI65
aa(lp421
g10
aI64
aa(lp422
g80
aI64
aa(lp423
S'me'
p424
aI64
aa(lp425
S'lare'
p426
aI64
aa(lp427
S'n'
p428
aI63
aa(lp429
g10
aI61
aa(lp430
S'j'
p431
aI61
aa(lp432
S'jouni'
p433
aI58
aa(lp434
g159
aI58
aa(lp435
S'v'
p436
aI56
aa(lp437
S'e9tn'
p438
aI56
aa(lp439
g170
aI56
aa(lp440
g80
aI54
aa(lp441
S'lare'
p442
aI53
aa(lp443
g191
aI53
aa(lp444
g315
aI52
aa(lp445
S'o'
p446
aI52
aa(lp447
S'd'
p448
aI50
aa(lp449
S'ytt'
p450
aI50
aa(lp451
g80
aI49
aa(lp452
S'hsr'
p453
aI46
aa(lp454
g159
aI45
aa(lp455
S'SAL'
p456
aI44
aa(lp457
g10
aI43
aa(lp458
g93
aI43
aa(lp459
S'terwis'
p460
aI42
aa(lp461
g10
aI40
aa(lp462
g10
aI40
aa(lp463
g170
aI38
aa(lp464
S'8'
p465
aI37
aa(lp466
S'4rrjg'
p467
aI37
aa(lp468
g170
aI37
aa(lp469
g10
aI36
aa(lp470
g80
aI35
aa(lp471
g170
aI35
aa(lp472
S'ss'
p473
aI33
aa(lp474
g10
aI31
aa(lp475
S'jg6m'
p476
aI29
aa(lp477
g80
aI28
aa(lp478
g159
aI28
aa(lp479
S'spock'
p480
aI25
aa(lp481
S'Anonymous'
p482
aI25
aa(lp483
S'5'
p484
aI20
aa(lp485
S'vappis'
p486
aI16
aa(lp487
S'jake'
p488
aI13
aa(lp489
g315
aI12
aa(lp490
g80
aI10
aa(lp491
g80
aI10
aa(lp492
S'ryty'
p493
aI5
aa(lp494
g80
aI2
aa(lp495
g10
aI1
aa(lp496
S'c'
p497
aI0
aa(lp498
g40
aI0
aa(lp499
S'maggie'
p500
aI-2
aa(lp501
S'zerhfxn'
p502
aI-8
aa(lp503
S'adzq'
p504
aI-11
aa(lp505
S'Moo'
p506
aI-14
aa(lp507
g159
aI-14
aa(lp508
S'juyukh'
p509
aI-20
aa(lp510
g170
aI-21
aa(lp511
S'Anonymous'
p512
aI-21
aa(lp513
S'8'
p514
aI-22
aa(lp515
S'dfl'
p516
aI-28
aa(lp517
g10
aI-31
aa(lp518
S'ilmari'
p519
aI-33
aa(lp520
g10
aI-33
aa(lp521
S'armas'
p522
aI-37
aa(lp523
g10
aI-38
aa(lp524
g10
aI-39
aa(lp525
g10
aI-40
aa(lp526
g10
aI-41
aa(lp527
g80
aI-44
aa(lp528
g10
aI-57
aa(lp529
S',nl,k9n8iiiiivr4dbhnhhyhhgggjkklj6sukmvgixrokrdvomAOFJOIHGGUPH6IIJ HOUGCJ-YOOB'
p530
aI-67
aa(lp531
S'cthulhu'
p532
aI-75
aa(lp533
S'Anonymous'
p534
aI-79
aa(lp535
S'otso'
p536
aI-96
aa(lp537
S'nu8i'
p538
aI-159
aa(lp539
g10
aI-162
aa.